target datalayout = "e-m:e-p270:32:32-p271:32:32-p272:64:64-i64:64-i128:128-f80:128-n8:16:32:64-S128"
target triple = "x86_64-pc-linux-gnu"

%"struct.std::pair.5" = type { ptr, i64 }

; Function Attrs: mustprogress nounwind uwtable
define linkonce_odr hidden void @_ZNSt4pairIPKcmEC2IDniTnNSt9enable_ifIXaaclsr5_PCCPE22_MoveConstructiblePairIT_T0_EEclsr5_PCCPE30_ImplicitlyMoveConvertiblePairIS5_S6_EEEbE4typeELb1EEEOS5_OS6_(ptr noundef nonnull align 8 dereferenceable(16) %0, ptr noundef nonnull align 8 dereferenceable(8) %1, ptr noundef nonnull align 4 dereferenceable(4) %2) unnamed_addr #7 comdat align 2 {
  %4 = alloca ptr, align 8
  %5 = alloca ptr, align 8
  %6 = alloca ptr, align 8
  store ptr %0, ptr %4, align 8, !tbaa !106
  store ptr %1, ptr %5, align 8, !tbaa !45
  store ptr %2, ptr %6, align 8, !tbaa !29
  %7 = load ptr, ptr %4, align 8
  %8 = getelementptr inbounds nuw %"struct.std::pair.5", ptr %7, i32 0, i32 0
  store ptr null, ptr %8, align 8, !tbaa !110
  %9 = getelementptr inbounds nuw %"struct.std::pair.5", ptr %7, i32 0, i32 1
  %10 = load ptr, ptr %6, align 8, !tbaa !29
  %11 = load i32, ptr %10, align 4, !tbaa !19
  %12 = sext i32 %11 to i64
  store i64 %12, ptr %9, align 8, !tbaa !112
  ret void
}

; Function Attrs: mustprogress nounwind uwtable
define linkonce_odr hidden void @_ZNSt4pairIPKcmEC2IS1_RmTnNSt9enable_ifIXaaclsr5_PCCPE22_MoveConstructiblePairIT_T0_EEclsr5_PCCPE30_ImplicitlyMoveConvertiblePairIS6_S7_EEEbE4typeELb1EEEOS6_OS7_(ptr noundef nonnull align 8 dereferenceable(16) %0, ptr noundef nonnull align 8 dereferenceable(8) %1, ptr noundef nonnull align 8 dereferenceable(8) %2) unnamed_addr #7 comdat align 2 {
  %4 = alloca ptr, align 8
  %5 = alloca ptr, align 8
  %6 = alloca ptr, align 8
  store ptr %0, ptr %4, align 8, !tbaa !106
  store ptr %1, ptr %5, align 8, !tbaa !54
  store ptr %2, ptr %6, align 8, !tbaa !108
  %7 = load ptr, ptr %4, align 8
  %8 = getelementptr inbounds nuw %"struct.std::pair.5", ptr %7, i32 0, i32 0
  %9 = load ptr, ptr %5, align 8, !tbaa !54
  %10 = load ptr, ptr %9, align 8, !tbaa !16
  store ptr %10, ptr %8, align 8, !tbaa !110
  %11 = getelementptr inbounds nuw %"struct.std::pair.5", ptr %7, i32 0, i32 1
  %12 = load ptr, ptr %6, align 8, !tbaa !108
  %13 = load i64, ptr %12, align 8, !tbaa !72
  store i64 %13, ptr %11, align 8, !tbaa !112
  ret void
}

; Function Attrs: mustprogress uwtable
define hidden { ptr, i64 } @_ZN6google8protobuf8internal17VarintParseSlow64EPKcj(ptr noundef %0, i32 noundef %1) #4 {
  %3 = alloca %"struct.std::pair.5", align 8
  %4 = alloca ptr, align 8
  %5 = alloca i32, align 4
  %6 = alloca i64, align 8
  %7 = alloca i32, align 4
  %8 = alloca i32, align 4
  %9 = alloca i64, align 8
  %10 = alloca ptr, align 8
  %11 = alloca ptr, align 8
  %12 = alloca i32, align 4
  store ptr %0, ptr %4, align 8, !tbaa !16
  store i32 %1, ptr %5, align 4, !tbaa !19
  call void @llvm.lifetime.start.p0(i64 8, ptr %6) #3
  %13 = load i32, ptr %5, align 4, !tbaa !19
  %14 = zext i32 %13 to i64
  store i64 %14, ptr %6, align 8, !tbaa !72
  call void @llvm.lifetime.start.p0(i64 4, ptr %7) #3
  store i32 2, ptr %7, align 4, !tbaa !19
  br label %15

15:                                               ; preds = %49, %2
  %16 = load i32, ptr %7, align 4, !tbaa !19
  %17 = icmp ult i32 %16, 10
  br i1 %17, label %19, label %18

18:                                               ; preds = %15
  store i32 2, ptr %8, align 4
  br label %52

19:                                               ; preds = %15
  call void @llvm.lifetime.start.p0(i64 8, ptr %9) #3
  %20 = load ptr, ptr %4, align 8, !tbaa !16
  %21 = load i32, ptr %7, align 4, !tbaa !19
  %22 = zext i32 %21 to i64
  %23 = getelementptr inbounds nuw i8, ptr %20, i64 %22
  %24 = load i8, ptr %23, align 1, !tbaa !85
  %25 = zext i8 %24 to i64
  store i64 %25, ptr %9, align 8, !tbaa !72
  %26 = load i64, ptr %9, align 8, !tbaa !72
  %27 = sub i64 %26, 1
  %28 = load i32, ptr %7, align 4, !tbaa !19
  %29 = mul i32 7, %28
  %30 = zext i32 %29 to i64
  %31 = shl i64 %27, %30
  %32 = load i64, ptr %6, align 8, !tbaa !72
  %33 = add i64 %32, %31
  store i64 %33, ptr %6, align 8, !tbaa !72
  %34 = load i64, ptr %9, align 8, !tbaa !72
  %35 = icmp ult i64 %34, 128
  %36 = zext i1 %35 to i64
  %37 = call i64 @llvm.expect.i64(i64 %36, i64 1)
  %38 = icmp ne i64 %37, 0
  br i1 %38, label %39, label %45

39:                                               ; preds = %19
  call void @llvm.lifetime.start.p0(i64 8, ptr %10) #3
  %40 = load ptr, ptr %4, align 8, !tbaa !16
  %41 = load i32, ptr %7, align 4, !tbaa !19
  %42 = zext i32 %41 to i64
  %43 = getelementptr inbounds nuw i8, ptr %40, i64 %42
  %44 = getelementptr inbounds i8, ptr %43, i64 1
  store ptr %44, ptr %10, align 8, !tbaa !16
  call void @_ZNSt4pairIPKcmEC2IS1_RmTnNSt9enable_ifIXaaclsr5_PCCPE22_MoveConstructiblePairIT_T0_EEclsr5_PCCPE30_ImplicitlyMoveConvertiblePairIS6_S7_EEEbE4typeELb1EEEOS6_OS7_(ptr noundef nonnull align 8 dereferenceable(16) %3, ptr noundef nonnull align 8 dereferenceable(8) %10, ptr noundef nonnull align 8 dereferenceable(8) %6)
  call void @llvm.lifetime.end.p0(i64 8, ptr %10) #3
  store i32 1, ptr %8, align 4
  br label %46

45:                                               ; preds = %19
  store i32 0, ptr %8, align 4
  br label %46

46:                                               ; preds = %45, %39
  call void @llvm.lifetime.end.p0(i64 8, ptr %9) #3
  %47 = load i32, ptr %8, align 4
  switch i32 %47, label %52 [
    i32 0, label %48
  ]

48:                                               ; preds = %46
  br label %49

49:                                               ; preds = %48
  %50 = load i32, ptr %7, align 4, !tbaa !19
  %51 = add i32 %50, 1
  store i32 %51, ptr %7, align 4, !tbaa !19
  br label %15, !llvm.loop !105

52:                                               ; preds = %46, %18
  call void @llvm.lifetime.end.p0(i64 4, ptr %7) #3
  %53 = load i32, ptr %8, align 4
  switch i32 %53, label %55 [
    i32 2, label %54
  ]

54:                                               ; preds = %52
  call void @llvm.lifetime.start.p0(i64 8, ptr %11) #3
  store ptr null, ptr %11, align 8, !tbaa !31
  call void @llvm.lifetime.start.p0(i64 4, ptr %12) #3
  store i32 0, ptr %12, align 4, !tbaa !19
  call void @_ZNSt4pairIPKcmEC2IDniTnNSt9enable_ifIXaaclsr5_PCCPE22_MoveConstructiblePairIT_T0_EEclsr5_PCCPE30_ImplicitlyMoveConvertiblePairIS5_S6_EEEbE4typeELb1EEEOS5_OS6_(ptr noundef nonnull align 8 dereferenceable(16) %3, ptr noundef nonnull align 8 dereferenceable(8) %11, ptr noundef nonnull align 4 dereferenceable(4) %12)
  call void @llvm.lifetime.end.p0(i64 4, ptr %12) #3
  call void @llvm.lifetime.end.p0(i64 8, ptr %11) #3
  store i32 1, ptr %8, align 4
  br label %55

55:                                               ; preds = %54, %52
  call void @llvm.lifetime.end.p0(i64 8, ptr %6) #3
  %56 = load { ptr, i64 }, ptr %3, align 8
  ret { ptr, i64 } %56
}